; ModuleID = '39/182.c'
source_filename = "39/182.c"
target datalayout = "e-m:e-p270:32:32-p271:32:32-p272:64:64-i64:64-f80:128-n8:16:32:64-S128"
target triple = "x86_64-pc-linux-gnu"

%struct.student = type { [20 x i8], i32, i32, i8, i8, i32, i32 }

@.str = private unnamed_addr constant [3 x i8] c"%d\00", align 1
@.str.1 = private unnamed_addr constant [15 x i8] c"%s%d%d %c %c%d\00", align 1
@.str.2 = private unnamed_addr constant [10 x i8] c"%s\0A%d\0A%d\0A\00", align 1

; Function Attrs: noinline nounwind uwtable
define dso_local void @main() #0 {
  %1 = alloca [100 x %struct.student], align 16
  %2 = alloca %struct.student, align 4
  %3 = alloca i32, align 4
  %4 = alloca i32, align 4
  %5 = alloca i32, align 4
  %6 = alloca i32, align 4
  store i32 0, i32* %6, align 4
  %7 = call i32 (i8*, ...) @__isoc99_scanf(i8* getelementptr inbounds ([3 x i8], [3 x i8]* @.str, i64 0, i64 0), i32* %5)
  store i32 0, i32* %3, align 4
  br label %8

8:                                                ; preds = %143, %0
  %9 = load i32, i32* %3, align 4
  %10 = load i32, i32* %5, align 4
  %11 = icmp slt i32 %9, %10
  br i1 %11, label %12, label %146

12:                                               ; preds = %8
  %13 = load i32, i32* %3, align 4
  %14 = sext i32 %13 to i64
  %15 = getelementptr inbounds [100 x %struct.student], [100 x %struct.student]* %1, i64 0, i64 %14
  %16 = getelementptr inbounds %struct.student, %struct.student* %15, i32 0, i32 0
  %17 = getelementptr inbounds [20 x i8], [20 x i8]* %16, i64 0, i64 0
  %18 = load i32, i32* %3, align 4
  %19 = sext i32 %18 to i64
  %20 = getelementptr inbounds [100 x %struct.student], [100 x %struct.student]* %1, i64 0, i64 %19
  %21 = getelementptr inbounds %struct.student, %struct.student* %20, i32 0, i32 1
  %22 = load i32, i32* %3, align 4
  %23 = sext i32 %22 to i64
  %24 = getelementptr inbounds [100 x %struct.student], [100 x %struct.student]* %1, i64 0, i64 %23
  %25 = getelementptr inbounds %struct.student, %struct.student* %24, i32 0, i32 2
  %26 = load i32, i32* %3, align 4
  %27 = sext i32 %26 to i64
  %28 = getelementptr inbounds [100 x %struct.student], [100 x %struct.student]* %1, i64 0, i64 %27
  %29 = getelementptr inbounds %struct.student, %struct.student* %28, i32 0, i32 3
  %30 = load i32, i32* %3, align 4
  %31 = sext i32 %30 to i64
  %32 = getelementptr inbounds [100 x %struct.student], [100 x %struct.student]* %1, i64 0, i64 %31
  %33 = getelementptr inbounds %struct.student, %struct.student* %32, i32 0, i32 4
  %34 = load i32, i32* %3, align 4
  %35 = sext i32 %34 to i64
  %36 = getelementptr inbounds [100 x %struct.student], [100 x %struct.student]* %1, i64 0, i64 %35
  %37 = getelementptr inbounds %struct.student, %struct.student* %36, i32 0, i32 5
  %38 = call i32 (i8*, ...) @__isoc99_scanf(i8* getelementptr inbounds ([15 x i8], [15 x i8]* @.str.1, i64 0, i64 0), i8* %17, i32* %21, i32* %25, i8* %29, i8* %33, i32* %37)
  %39 = load i32, i32* %3, align 4
  %40 = sext i32 %39 to i64
  %41 = getelementptr inbounds [100 x %struct.student], [100 x %struct.student]* %1, i64 0, i64 %40
  %42 = getelementptr inbounds %struct.student, %struct.student* %41, i32 0, i32 6
  store i32 0, i32* %42, align 4
  %43 = load i32, i32* %3, align 4
  %44 = sext i32 %43 to i64
  %45 = getelementptr inbounds [100 x %struct.student], [100 x %struct.student]* %1, i64 0, i64 %44
  %46 = getelementptr inbounds %struct.student, %struct.student* %45, i32 0, i32 1
  %47 = load i32, i32* %46, align 4
  %48 = icmp sgt i32 %47, 80
  br i1 %48, label %49, label %63

49:                                               ; preds = %12
  %50 = load i32, i32* %3, align 4
  %51 = sext i32 %50 to i64
  %52 = getelementptr inbounds [100 x %struct.student], [100 x %struct.student]* %1, i64 0, i64 %51
  %53 = getelementptr inbounds %struct.student, %struct.student* %52, i32 0, i32 5
  %54 = load i32, i32* %53, align 8
  %55 = icmp sgt i32 %54, 0
  br i1 %55, label %56, label %63

56:                                               ; preds = %49
  %57 = load i32, i32* %3, align 4
  %58 = sext i32 %57 to i64
  %59 = getelementptr inbounds [100 x %struct.student], [100 x %struct.student]* %1, i64 0, i64 %58
  %60 = getelementptr inbounds %struct.student, %struct.student* %59, i32 0, i32 6
  %61 = load i32, i32* %60, align 4
  %62 = add nsw i32 %61, 8000
  store i32 %62, i32* %60, align 4
  br label %63

63:                                               ; preds = %56, %49, %12
  %64 = load i32, i32* %3, align 4
  %65 = sext i32 %64 to i64
  %66 = getelementptr inbounds [100 x %struct.student], [100 x %struct.student]* %1, i64 0, i64 %65
  %67 = getelementptr inbounds %struct.student, %struct.student* %66, i32 0, i32 1
  %68 = load i32, i32* %67, align 4
  %69 = icmp sgt i32 %68, 85
  br i1 %69, label %70, label %84

70:                                               ; preds = %63
  %71 = load i32, i32* %3, align 4
  %72 = sext i32 %71 to i64
  %73 = getelementptr inbounds [100 x %struct.student], [100 x %struct.student]* %1, i64 0, i64 %72
  %74 = getelementptr inbounds %struct.student, %struct.student* %73, i32 0, i32 2
  %75 = load i32, i32* %74, align 8
  %76 = icmp sgt i32 %75, 80
  br i1 %76, label %77, label %84

77:                                               ; preds = %70
  %78 = load i32, i32* %3, align 4
  %79 = sext i32 %78 to i64
  %80 = getelementptr inbounds [100 x %struct.student], [100 x %struct.student]* %1, i64 0, i64 %79
  %81 = getelementptr inbounds %struct.student, %struct.student* %80, i32 0, i32 6
  %82 = load i32, i32* %81, align 4
  %83 = add nsw i32 %82, 4000
  store i32 %83, i32* %81, align 4
  br label %84

84:                                               ; preds = %77, %70, %63
  %85 = load i32, i32* %3, align 4
  %86 = sext i32 %85 to i64
  %87 = getelementptr inbounds [100 x %struct.student], [100 x %struct.student]* %1, i64 0, i64 %86
  %88 = getelementptr inbounds %struct.student, %struct.student* %87, i32 0, i32 1
  %89 = load i32, i32* %88, align 4
  %90 = icmp sgt i32 %89, 90
  br i1 %90, label %91, label %98

91:                                               ; preds = %84
  %92 = load i32, i32* %3, align 4
  %93 = sext i32 %92 to i64
  %94 = getelementptr inbounds [100 x %struct.student], [100 x %struct.student]* %1, i64 0, i64 %93
  %95 = getelementptr inbounds %struct.student, %struct.student* %94, i32 0, i32 6
  %96 = load i32, i32* %95, align 4
  %97 = add nsw i32 %96, 2000
  store i32 %97, i32* %95, align 4
  br label %98

98:                                               ; preds = %91, %84
  %99 = load i32, i32* %3, align 4
  %100 = sext i32 %99 to i64
  %101 = getelementptr inbounds [100 x %struct.student], [100 x %struct.student]* %1, i64 0, i64 %100
  %102 = getelementptr inbounds %struct.student, %struct.student* %101, i32 0, i32 2
  %103 = load i32, i32* %102, align 8
  %104 = icmp sgt i32 %103, 80
  br i1 %104, label %105, label %120

105:                                              ; preds = %98
  %106 = load i32, i32* %3, align 4
  %107 = sext i32 %106 to i64
  %108 = getelementptr inbounds [100 x %struct.student], [100 x %struct.student]* %1, i64 0, i64 %107
  %109 = getelementptr inbounds %struct.student, %struct.student* %108, i32 0, i32 3
  %110 = load i8, i8* %109, align 4
  %111 = sext i8 %110 to i32
  %112 = icmp eq i32 %111, 89
  br i1 %112, label %113, label %120

113:                                              ; preds = %105
  %114 = load i32, i32* %3, align 4
  %115 = sext i32 %114 to i64
  %116 = getelementptr inbounds [100 x %struct.student], [100 x %struct.student]* %1, i64 0, i64 %115
  %117 = getelementptr inbounds %struct.student, %struct.student* %116, i32 0, i32 6
  %118 = load i32, i32* %117, align 4
  %119 = add nsw i32 %118, 850
  store i32 %119, i32* %117, align 4
  br label %120

120:                                              ; preds = %113, %105, %98
  %121 = load i32, i32* %3, align 4
  %122 = sext i32 %121 to i64
  %123 = getelementptr inbounds [100 x %struct.student], [100 x %struct.student]* %1, i64 0, i64 %122
  %124 = getelementptr inbounds %struct.student, %struct.student* %123, i32 0, i32 1
  %125 = load i32, i32* %124, align 4
  %126 = icmp sgt i32 %125, 85
  br i1 %126, label %127, label %142

127:                                              ; preds = %120
  %128 = load i32, i32* %3, align 4
  %129 = sext i32 %128 to i64
  %130 = getelementptr inbounds [100 x %struct.student], [100 x %struct.student]* %1, i64 0, i64 %129
  %131 = getelementptr inbounds %struct.student, %struct.student* %130, i32 0, i32 4
  %132 = load i8, i8* %131, align 1
  %133 = sext i8 %132 to i32
  %134 = icmp eq i32 %133, 89
  br i1 %134, label %135, label %142

135:                                              ; preds = %127
  %136 = load i32, i32* %3, align 4
  %137 = sext i32 %136 to i64
  %138 = getelementptr inbounds [100 x %struct.student], [100 x %struct.student]* %1, i64 0, i64 %137
  %139 = getelementptr inbounds %struct.student, %struct.student* %138, i32 0, i32 6
  %140 = load i32, i32* %139, align 4
  %141 = add nsw i32 %140, 1000
  store i32 %141, i32* %139, align 4
  br label %142

142:                                              ; preds = %135, %127, %120
  br label %143

143:                                              ; preds = %142
  %144 = load i32, i32* %3, align 4
  %145 = add nsw i32 %144, 1
  store i32 %145, i32* %3, align 4
  br label %8

146:                                              ; preds = %8
  store i32 0, i32* %3, align 4
  br label %147

147:                                              ; preds = %195, %146
  %148 = load i32, i32* %3, align 4
  %149 = load i32, i32* %5, align 4
  %150 = sub nsw i32 %149, 1
  %151 = icmp slt i32 %148, %150
  br i1 %151, label %152, label %198

152:                                              ; preds = %147
  %153 = load i32, i32* %3, align 4
  %154 = add nsw i32 %153, 1
  store i32 %154, i32* %4, align 4
  br label %155

155:                                              ; preds = %191, %152
  %156 = load i32, i32* %4, align 4
  %157 = load i32, i32* %5, align 4
  %158 = icmp slt i32 %156, %157
  br i1 %158, label %159, label %194

159:                                              ; preds = %155
  %160 = load i32, i32* %3, align 4
  %161 = sext i32 %160 to i64
  %162 = getelementptr inbounds [100 x %struct.student], [100 x %struct.student]* %1, i64 0, i64 %161
  %163 = getelementptr inbounds %struct.student, %struct.student* %162, i32 0, i32 6
  %164 = load i32, i32* %163, align 4
  %165 = load i32, i32* %4, align 4
  %166 = sext i32 %165 to i64
  %167 = getelementptr inbounds [100 x %struct.student], [100 x %struct.student]* %1, i64 0, i64 %166
  %168 = getelementptr inbounds %struct.student, %struct.student* %167, i32 0, i32 6
  %169 = load i32, i32* %168, align 4
  %170 = icmp slt i32 %164, %169
  br i1 %170, label %171, label %190

171:                                              ; preds = %159
  %172 = load i32, i32* %3, align 4
  %173 = sext i32 %172 to i64
  %174 = getelementptr inbounds [100 x %struct.student], [100 x %struct.student]* %1, i64 0, i64 %173
  %175 = bitcast %struct.student* %2 to i8*
  %176 = bitcast %struct.student* %174 to i8*
  call void @llvm.memcpy.p0i8.p0i8.i64(i8* align 4 %175, i8* align 8 %176, i64 40, i1 false)
  %177 = load i32, i32* %3, align 4
  %178 = sext i32 %177 to i64
  %179 = getelementptr inbounds [100 x %struct.student], [100 x %struct.student]* %1, i64 0, i64 %178
  %180 = load i32, i32* %4, align 4
  %181 = sext i32 %180 to i64
  %182 = getelementptr inbounds [100 x %struct.student], [100 x %struct.student]* %1, i64 0, i64 %181
  %183 = bitcast %struct.student* %179 to i8*
  %184 = bitcast %struct.student* %182 to i8*
  call void @llvm.memcpy.p0i8.p0i8.i64(i8* align 8 %183, i8* align 8 %184, i64 40, i1 false)
  %185 = load i32, i32* %4, align 4
  %186 = sext i32 %185 to i64
  %187 = getelementptr inbounds [100 x %struct.student], [100 x %struct.student]* %1, i64 0, i64 %186
  %188 = bitcast %struct.student* %187 to i8*
  %189 = bitcast %struct.student* %2 to i8*
  call void @llvm.memcpy.p0i8.p0i8.i64(i8* align 8 %188, i8* align 4 %189, i64 40, i1 false)
  br label %190

190:                                              ; preds = %171, %159
  br label %191

191:                                              ; preds = %190
  %192 = load i32, i32* %4, align 4
  %193 = add nsw i32 %192, 1
  store i32 %193, i32* %4, align 4
  br label %155

194:                                              ; preds = %155
  br label %195

195:                                              ; preds = %194
  %196 = load i32, i32* %3, align 4
  %197 = add nsw i32 %196, 1
  store i32 %197, i32* %3, align 4
  br label %147

198:                                              ; preds = %147
  store i32 0, i32* %3, align 4
  br label %199

199:                                              ; preds = %211, %198
  %200 = load i32, i32* %3, align 4
  %201 = load i32, i32* %5, align 4
  %202 = icmp slt i32 %200, %201
  br i1 %202, label %203, label %214

203:                                              ; preds = %199
  %204 = load i32, i32* %3, align 4
  %205 = sext i32 %204 to i64
  %206 = getelementptr inbounds [100 x %struct.student], [100 x %struct.student]* %1, i64 0, i64 %205
  %207 = getelementptr inbounds %struct.student, %struct.student* %206, i32 0, i32 6
  %208 = load i32, i32* %207, align 4
  %209 = load i32, i32* %6, align 4
  %210 = add nsw i32 %209, %208
  store i32 %210, i32* %6, align 4
  br label %211

211:                                              ; preds = %203
  %212 = load i32, i32* %3, align 4
  %213 = add nsw i32 %212, 1
  store i32 %213, i32* %3, align 4
  br label %199

214:                                              ; preds = %199
  %215 = getelementptr inbounds [100 x %struct.student], [100 x %struct.student]* %1, i64 0, i64 0
  %216 = getelementptr inbounds %struct.student, %struct.student* %215, i32 0, i32 0
  %217 = getelementptr inbounds [20 x i8], [20 x i8]* %216, i64 0, i64 0
  %218 = getelementptr inbounds [100 x %struct.student], [100 x %struct.student]* %1, i64 0, i64 0
  %219 = getelementptr inbounds %struct.student, %struct.student* %218, i32 0, i32 6
  %220 = load i32, i32* %219, align 4
  %221 = load i32, i32* %6, align 4
  %222 = call i32 (i8*, ...) @printf(i8* getelementptr inbounds ([10 x i8], [10 x i8]* @.str.2, i64 0, i64 0), i8* %217, i32 %220, i32 %221)
  ret void
}

declare dso_local i32 @__isoc99_scanf(i8*, ...) #1

; Function Attrs: argmemonly nounwind willreturn
declare void @llvm.memcpy.p0i8.p0i8.i64(i8* noalias nocapture writeonly, i8* noalias nocapture readonly, i64, i1 immarg) #2

declare dso_local i32 @printf(i8*, ...) #1


!llvm.module.flags = !{!0}
!llvm.ident = !{!1}

!0 = !{i32 1, !"wchar_size", i32 4}
!1 = !{!"clang version 10.0.0-4ubuntu1 "}
